; ModuleID = '3/207.c'
source_filename = "3/207.c"
target datalayout = "e-m:e-p270:32:32-p271:32:32-p272:64:64-i64:64-f80:128-n8:16:32:64-S128"
target triple = "x86_64-pc-linux-gnu"

@.str = private unnamed_addr constant [6 x i8] c"%d %d\00", align 1
@.str.1 = private unnamed_addr constant [3 x i8] c"%d\00", align 1
@.str.2 = private unnamed_addr constant [3 x i8] c"no\00", align 1
@.str.3 = private unnamed_addr constant [4 x i8] c"yes\00", align 1

; Function Attrs: noinline nounwind uwtable
define dso_local i32 @main(i32 %0, i8** %1) #0 {
  %3 = alloca i32, align 4
  %4 = alloca i32, align 4
  %5 = alloca i8**, align 8
  %6 = alloca i32, align 4
  %7 = alloca i32, align 4
  %8 = alloca i32, align 4
  %9 = alloca [1000 x i32], align 16
  %10 = alloca i32, align 4
  %11 = alloca i32, align 4
  %12 = alloca i32, align 4
  %13 = alloca i32, align 4
  store i32 0, i32* %3, align 4
  store i32 %0, i32* %4, align 4
  store i8** %1, i8*** %5, align 8
  store i32 0, i32* %8, align 4
  store i32 0, i32* %12, align 4
  store i32 0, i32* %13, align 4
  %14 = call i32 (i8*, ...) @__isoc99_scanf(i8* getelementptr inbounds ([6 x i8], [6 x i8]* @.str, i64 0, i64 0), i32* %6, i32* %7)
  store i32 0, i32* %10, align 4
  br label %15

15:                                               ; preds = %24, %2
  %16 = load i32, i32* %10, align 4
  %17 = load i32, i32* %6, align 4
  %18 = icmp slt i32 %16, %17
  br i1 %18, label %19, label %27

19:                                               ; preds = %15
  %20 = load i32, i32* %10, align 4
  %21 = sext i32 %20 to i64
  %22 = getelementptr inbounds [1000 x i32], [1000 x i32]* %9, i64 0, i64 %21
  %23 = call i32 (i8*, ...) @__isoc99_scanf(i8* getelementptr inbounds ([3 x i8], [3 x i8]* @.str.1, i64 0, i64 0), i32* %22)
  br label %24

24:                                               ; preds = %19
  %25 = load i32, i32* %10, align 4
  %26 = add nsw i32 %25, 1
  store i32 %26, i32* %10, align 4
  br label %15

27:                                               ; preds = %15
  store i32 0, i32* %10, align 4
  br label %28

28:                                               ; preds = %62, %27
  %29 = load i32, i32* %10, align 4
  %30 = load i32, i32* %6, align 4
  %31 = icmp slt i32 %29, %30
  br i1 %31, label %32, label %65

32:                                               ; preds = %28
  %33 = load i32, i32* %10, align 4
  %34 = add nsw i32 %33, 1
  store i32 %34, i32* %11, align 4
  br label %35

35:                                               ; preds = %58, %32
  %36 = load i32, i32* %11, align 4
  %37 = load i32, i32* %6, align 4
  %38 = icmp slt i32 %36, %37
  br i1 %38, label %39, label %61

39:                                               ; preds = %35
  %40 = load i32, i32* %10, align 4
  %41 = sext i32 %40 to i64
  %42 = getelementptr inbounds [1000 x i32], [1000 x i32]* %9, i64 0, i64 %41
  %43 = load i32, i32* %42, align 4
  %44 = load i32, i32* %11, align 4
  %45 = sext i32 %44 to i64
  %46 = getelementptr inbounds [1000 x i32], [1000 x i32]* %9, i64 0, i64 %45
  %47 = load i32, i32* %46, align 4
  %48 = add nsw i32 %43, %47
  store i32 %48, i32* %8, align 4
  %49 = load i32, i32* %8, align 4
  %50 = load i32, i32* %7, align 4
  %51 = icmp eq i32 %49, %50
  br i1 %51, label %52, label %55

52:                                               ; preds = %39
  %53 = load i32, i32* %13, align 4
  %54 = add nsw i32 %53, 1
  store i32 %54, i32* %13, align 4
  br label %55

55:                                               ; preds = %52, %39
  %56 = load i32, i32* %12, align 4
  %57 = add nsw i32 %56, 1
  store i32 %57, i32* %12, align 4
  br label %58

58:                                               ; preds = %55
  %59 = load i32, i32* %11, align 4
  %60 = add nsw i32 %59, 1
  store i32 %60, i32* %11, align 4
  br label %35

61:                                               ; preds = %35
  br label %62

62:                                               ; preds = %61
  %63 = load i32, i32* %10, align 4
  %64 = add nsw i32 %63, 1
  store i32 %64, i32* %10, align 4
  br label %28

65:                                               ; preds = %28
  %66 = load i32, i32* %13, align 4
  %67 = icmp eq i32 %66, 0
  br i1 %67, label %68, label %70

68:                                               ; preds = %65
  %69 = call i32 (i8*, ...) @printf(i8* getelementptr inbounds ([3 x i8], [3 x i8]* @.str.2, i64 0, i64 0))
  br label %72

70:                                               ; preds = %65
  %71 = call i32 (i8*, ...) @printf(i8* getelementptr inbounds ([4 x i8], [4 x i8]* @.str.3, i64 0, i64 0))
  br label %72

72:                                               ; preds = %70, %68
  ret i32 0
}

declare dso_local i32 @__isoc99_scanf(i8*, ...) #1

declare dso_local i32 @printf(i8*, ...) #1


!llvm.module.flags = !{!0}
!llvm.ident = !{!1}

!0 = !{i32 1, !"wchar_size", i32 4}
!1 = !{!"clang version 10.0.0-4ubuntu1 "}
